target datalayout = "e-m:e-p270:32:32-p271:32:32-p272:64:64-i64:64-i128:128-f80:128-n8:16:32:64-S128"
target triple = "x86_64-unknown-linux-gnu"

%struct.UText = type { i32, i32, i32, i32, i64, i32, i32, i64, i32, i32, ptr, ptr, ptr, ptr, ptr, ptr, ptr, ptr, i64, i32, i32, i64, i32, i32 }
%struct.UTextFuncs = type { i32, i32, i32, i32, ptr, ptr, ptr, ptr, ptr, ptr, ptr, ptr, ptr, ptr, ptr, ptr }

; Function Attrs: mustprogress uwtable
define void @utext_setNativeIndex_75(ptr noundef %ut, i64 noundef %index) #0 {
entry:
  %ut.addr = alloca ptr, align 8
  %index.addr = alloca i64, align 8
  %c = alloca i16, align 2
  %lead = alloca i16, align 2
  store ptr %ut, ptr %ut.addr, align 8
  store i64 %index, ptr %index.addr, align 8
  %0 = load i64, ptr %index.addr, align 8
  %1 = load ptr, ptr %ut.addr, align 8
  %chunkNativeStart = getelementptr inbounds %struct.UText, ptr %1, i32 0, i32 7
  %2 = load i64, ptr %chunkNativeStart, align 8
  %cmp = icmp slt i64 %0, %2
  br i1 %cmp, label %if.then, label %lor.lhs.false

lor.lhs.false:                                    ; preds = %entry
  %3 = load i64, ptr %index.addr, align 8
  %4 = load ptr, ptr %ut.addr, align 8
  %chunkNativeLimit = getelementptr inbounds %struct.UText, ptr %4, i32 0, i32 4
  %5 = load i64, ptr %chunkNativeLimit, align 8
  %cmp1 = icmp sge i64 %3, %5
  br i1 %cmp1, label %if.then, label %if.else

if.then:                                          ; preds = %lor.lhs.false, %entry
  %6 = load ptr, ptr %ut.addr, align 8
  %pFuncs = getelementptr inbounds %struct.UText, ptr %6, i32 0, i32 11
  %7 = load ptr, ptr %pFuncs, align 8
  %access = getelementptr inbounds %struct.UTextFuncs, ptr %7, i32 0, i32 6
  %8 = load ptr, ptr %access, align 8
  %9 = load ptr, ptr %ut.addr, align 8
  %10 = load i64, ptr %index.addr, align 8
  %call = call noundef signext i8 %8(ptr noundef %9, i64 noundef %10, i8 noundef signext 1)
  br label %if.end12

if.else:                                          ; preds = %lor.lhs.false
  %11 = load i64, ptr %index.addr, align 8
  %12 = load ptr, ptr %ut.addr, align 8
  %chunkNativeStart2 = getelementptr inbounds %struct.UText, ptr %12, i32 0, i32 7
  %13 = load i64, ptr %chunkNativeStart2, align 8
  %sub = sub nsw i64 %11, %13
  %conv = trunc i64 %sub to i32
  %14 = load ptr, ptr %ut.addr, align 8
  %nativeIndexingLimit = getelementptr inbounds %struct.UText, ptr %14, i32 0, i32 6
  %15 = load i32, ptr %nativeIndexingLimit, align 4
  %cmp3 = icmp sle i32 %conv, %15
  br i1 %cmp3, label %if.then4, label %if.else8

if.then4:                                         ; preds = %if.else
  %16 = load i64, ptr %index.addr, align 8
  %17 = load ptr, ptr %ut.addr, align 8
  %chunkNativeStart5 = getelementptr inbounds %struct.UText, ptr %17, i32 0, i32 7
  %18 = load i64, ptr %chunkNativeStart5, align 8
  %sub6 = sub nsw i64 %16, %18
  %conv7 = trunc i64 %sub6 to i32
  %19 = load ptr, ptr %ut.addr, align 8
  %chunkOffset = getelementptr inbounds %struct.UText, ptr %19, i32 0, i32 8
  store i32 %conv7, ptr %chunkOffset, align 8
  br label %if.end

if.else8:                                         ; preds = %if.else
  %20 = load ptr, ptr %ut.addr, align 8
  %pFuncs9 = getelementptr inbounds %struct.UText, ptr %20, i32 0, i32 11
  %21 = load ptr, ptr %pFuncs9, align 8
  %mapNativeIndexToUTF16 = getelementptr inbounds %struct.UTextFuncs, ptr %21, i32 0, i32 11
  %22 = load ptr, ptr %mapNativeIndexToUTF16, align 8
  %23 = load ptr, ptr %ut.addr, align 8
  %24 = load i64, ptr %index.addr, align 8
  %call10 = call noundef i32 %22(ptr noundef %23, i64 noundef %24)
  %25 = load ptr, ptr %ut.addr, align 8
  %chunkOffset11 = getelementptr inbounds %struct.UText, ptr %25, i32 0, i32 8
  store i32 %call10, ptr %chunkOffset11, align 8
  br label %if.end

if.end:                                           ; preds = %if.else8, %if.then4
  br label %if.end12

if.end12:                                         ; preds = %if.end, %if.then
  %26 = load ptr, ptr %ut.addr, align 8
  %chunkOffset13 = getelementptr inbounds %struct.UText, ptr %26, i32 0, i32 8
  %27 = load i32, ptr %chunkOffset13, align 8
  %28 = load ptr, ptr %ut.addr, align 8
  %chunkLength = getelementptr inbounds %struct.UText, ptr %28, i32 0, i32 9
  %29 = load i32, ptr %chunkLength, align 4
  %cmp14 = icmp slt i32 %27, %29
  br i1 %cmp14, label %if.then15, label %if.end44

if.then15:                                        ; preds = %if.end12
  %30 = load ptr, ptr %ut.addr, align 8
  %chunkContents = getelementptr inbounds %struct.UText, ptr %30, i32 0, i32 10
  %31 = load ptr, ptr %chunkContents, align 8
  %32 = load ptr, ptr %ut.addr, align 8
  %chunkOffset16 = getelementptr inbounds %struct.UText, ptr %32, i32 0, i32 8
  %33 = load i32, ptr %chunkOffset16, align 8
  %idxprom = sext i32 %33 to i64
  %arrayidx = getelementptr inbounds i16, ptr %31, i64 %idxprom
  %34 = load i16, ptr %arrayidx, align 2
  store i16 %34, ptr %c, align 2
  %35 = load i16, ptr %c, align 2
  %conv17 = zext i16 %35 to i32
  %and = and i32 %conv17, -1024
  %cmp18 = icmp eq i32 %and, 56320
  br i1 %cmp18, label %if.then19, label %if.end43

if.then19:                                        ; preds = %if.then15
  %36 = load ptr, ptr %ut.addr, align 8
  %chunkOffset20 = getelementptr inbounds %struct.UText, ptr %36, i32 0, i32 8
  %37 = load i32, ptr %chunkOffset20, align 8
  %cmp21 = icmp eq i32 %37, 0
  br i1 %cmp21, label %if.then22, label %if.end27

if.then22:                                        ; preds = %if.then19
  %38 = load ptr, ptr %ut.addr, align 8
  %pFuncs23 = getelementptr inbounds %struct.UText, ptr %38, i32 0, i32 11
  %39 = load ptr, ptr %pFuncs23, align 8
  %access24 = getelementptr inbounds %struct.UTextFuncs, ptr %39, i32 0, i32 6
  %40 = load ptr, ptr %access24, align 8
  %41 = load ptr, ptr %ut.addr, align 8
  %42 = load ptr, ptr %ut.addr, align 8
  %chunkNativeStart25 = getelementptr inbounds %struct.UText, ptr %42, i32 0, i32 7
  %43 = load i64, ptr %chunkNativeStart25, align 8
  %call26 = call noundef signext i8 %40(ptr noundef %41, i64 noundef %43, i8 noundef signext 0)
  br label %if.end27

if.end27:                                         ; preds = %if.then22, %if.then19
  %44 = load ptr, ptr %ut.addr, align 8
  %chunkOffset28 = getelementptr inbounds %struct.UText, ptr %44, i32 0, i32 8
  %45 = load i32, ptr %chunkOffset28, align 8
  %cmp29 = icmp sgt i32 %45, 0
  br i1 %cmp29, label %if.then30, label %if.end42

if.then30:                                        ; preds = %if.end27
  %46 = load ptr, ptr %ut.addr, align 8
  %chunkContents31 = getelementptr inbounds %struct.UText, ptr %46, i32 0, i32 10
  %47 = load ptr, ptr %chunkContents31, align 8
  %48 = load ptr, ptr %ut.addr, align 8
  %chunkOffset32 = getelementptr inbounds %struct.UText, ptr %48, i32 0, i32 8
  %49 = load i32, ptr %chunkOffset32, align 8
  %sub33 = sub nsw i32 %49, 1
  %idxprom34 = sext i32 %sub33 to i64
  %arrayidx35 = getelementptr inbounds i16, ptr %47, i64 %idxprom34
  %50 = load i16, ptr %arrayidx35, align 2
  store i16 %50, ptr %lead, align 2
  %51 = load i16, ptr %lead, align 2
  %conv36 = zext i16 %51 to i32
  %and37 = and i32 %conv36, -1024
  %cmp38 = icmp eq i32 %and37, 55296
  br i1 %cmp38, label %if.then39, label %if.end41

if.then39:                                        ; preds = %if.then30
  %52 = load ptr, ptr %ut.addr, align 8
  %chunkOffset40 = getelementptr inbounds %struct.UText, ptr %52, i32 0, i32 8
  %53 = load i32, ptr %chunkOffset40, align 8
  %dec = add nsw i32 %53, -1
  store i32 %dec, ptr %chunkOffset40, align 8
  br label %if.end41

if.end41:                                         ; preds = %if.then39, %if.then30
  br label %if.end42

if.end42:                                         ; preds = %if.end41, %if.end27
  br label %if.end43

if.end43:                                         ; preds = %if.end42, %if.then15
  br label %if.end44

if.end44:                                         ; preds = %if.end43, %if.end12
  ret void
}