; Function Attrs: mustprogress uwtable
define void @utext_setNativeIndex_75(ptr noundef %ut, i64 noundef %index) local_unnamed_addr #0 {
entry:
  %chunkNativeStart = getelementptr inbounds i8, ptr %ut, i64 32
  %0 = load i64, ptr %chunkNativeStart, align 8
  %cmp = icmp sgt i64 %0, %index
  br i1 %cmp, label %if.then, label %lor.lhs.false

lor.lhs.false:                                    ; preds = %entry
  %chunkNativeLimit = getelementptr inbounds i8, ptr %ut, i64 16
  %1 = load i64, ptr %chunkNativeLimit, align 8
  %cmp1.not = icmp sgt i64 %1, %index
  br i1 %cmp1.not, label %if.else, label %if.then

if.then:                                          ; preds = %lor.lhs.false, %entry
  %pFuncs = getelementptr inbounds i8, ptr %ut, i64 56
  %2 = load ptr, ptr %pFuncs, align 8
  %access = getelementptr inbounds i8, ptr %2, i64 32
  %3 = load ptr, ptr %access, align 8
  %call = tail call noundef signext i8 %3(ptr noundef nonnull %ut, i64 noundef %index, i8 noundef signext 1)
  %chunkOffset13.phi.trans.insert = getelementptr inbounds i8, ptr %ut, i64 40
  %.pre = load i32, ptr %chunkOffset13.phi.trans.insert, align 8
  br label %if.end12

if.else:                                          ; preds = %lor.lhs.false
  %sub = sub nsw i64 %index, %0
  %conv = trunc i64 %sub to i32
  %nativeIndexingLimit = getelementptr inbounds i8, ptr %ut, i64 28
  %4 = load i32, ptr %nativeIndexingLimit, align 4
  %cmp3.not = icmp slt i32 %4, %conv
  br i1 %cmp3.not, label %if.else8, label %if.then4

if.then4:                                         ; preds = %if.else
  %chunkOffset = getelementptr inbounds i8, ptr %ut, i64 40
  store i32 %conv, ptr %chunkOffset, align 8
  br label %if.end12

if.else8:                                         ; preds = %if.else
  %pFuncs9 = getelementptr inbounds i8, ptr %ut, i64 56
  %5 = load ptr, ptr %pFuncs9, align 8
  %mapNativeIndexToUTF16 = getelementptr inbounds i8, ptr %5, i64 72
  %6 = load ptr, ptr %mapNativeIndexToUTF16, align 8
  %call10 = tail call noundef i32 %6(ptr noundef nonnull %ut, i64 noundef %index)
  %chunkOffset11 = getelementptr inbounds i8, ptr %ut, i64 40
  store i32 %call10, ptr %chunkOffset11, align 8
  br label %if.end12

if.end12:                                         ; preds = %if.then4, %if.else8, %if.then
  %7 = phi i32 [ %conv, %if.then4 ], [ %call10, %if.else8 ], [ %.pre, %if.then ]
  %chunkOffset13 = getelementptr inbounds i8, ptr %ut, i64 40
  %chunkLength = getelementptr inbounds i8, ptr %ut, i64 44
  %8 = load i32, ptr %chunkLength, align 4
  %cmp14 = icmp slt i32 %7, %8
  br i1 %cmp14, label %if.then15, label %if.end44

if.then15:                                        ; preds = %if.end12
  %chunkContents = getelementptr inbounds i8, ptr %ut, i64 48
  %9 = load ptr, ptr %chunkContents, align 8
  %idxprom = sext i32 %7 to i64
  %arrayidx = getelementptr inbounds i16, ptr %9, i64 %idxprom
  %10 = load i16, ptr %arrayidx, align 2
  %11 = and i16 %10, -1024
  %cmp18 = icmp eq i16 %11, -9216
  br i1 %cmp18, label %if.then19, label %if.end44

if.then19:                                        ; preds = %if.then15
  %cmp21 = icmp eq i32 %7, 0
  br i1 %cmp21, label %if.then22, label %if.end27

if.then22:                                        ; preds = %if.then19
  %pFuncs23 = getelementptr inbounds i8, ptr %ut, i64 56
  %12 = load ptr, ptr %pFuncs23, align 8
  %access24 = getelementptr inbounds i8, ptr %12, i64 32
  %13 = load ptr, ptr %access24, align 8
  %14 = load i64, ptr %chunkNativeStart, align 8
  %call26 = tail call noundef signext i8 %13(ptr noundef nonnull %ut, i64 noundef %14, i8 noundef signext 0)
  br label %if.end27

if.end27:                                         ; preds = %if.then22, %if.then19
  %15 = load i32, ptr %chunkOffset13, align 8
  %cmp29 = icmp sgt i32 %15, 0
  br i1 %cmp29, label %if.then30, label %if.end44

if.then30:                                        ; preds = %if.end27
  %16 = load ptr, ptr %chunkContents, align 8
  %17 = zext nneg i32 %15 to i64
  %18 = getelementptr i16, ptr %16, i64 %17
  %arrayidx35 = getelementptr i8, ptr %18, i64 -2
  %19 = load i16, ptr %arrayidx35, align 2
  %20 = and i16 %19, -1024
  %cmp38 = icmp eq i16 %20, -10240
  br i1 %cmp38, label %if.then39, label %if.end44

if.then39:                                        ; preds = %if.then30
  %dec = add nsw i32 %15, -1
  store i32 %dec, ptr %chunkOffset13, align 8
  br label %if.end44

if.end44:                                         ; preds = %if.then15, %if.then30, %if.then39, %if.end27, %if.end12
  ret void
}